target datalayout = "e-m:e-p270:32:32-p271:32:32-p272:64:64-i64:64-i128:128-f80:128-n8:16:32:64-S128"
target triple = "x86_64-pc-linux-gnu"

%struct.TpxFileHeader = type <{ i8, i8, i8, i8, i8, i8, [2 x i8], i32, i32, float, i32, i64, i32, i32, i8, [7 x i8] }>
%"class.gmx::FileIOXdrSerializer" = type { %"class.gmx::ISerializer", ptr }
%"class.gmx::ISerializer" = type { ptr }
%"class.std::vector.71" = type { %"struct.std::_Vector_base.72" }
%"struct.std::_Vector_base.72" = type { %"struct.std::_Vector_base<char, std::allocator<char>>::_Vector_impl" }
%"struct.std::_Vector_base<char, std::allocator<char>>::_Vector_impl" = type { %"struct.std::_Vector_base<char, std::allocator<char>>::_Vector_impl_data" }
%"struct.std::_Vector_base<char, std::allocator<char>>::_Vector_impl_data" = type { ptr, ptr, ptr }
%class.t_state = type { i32, i32, i32, i32, i32, i32, %"struct.gmx::EnumerationArray.2", [3 x [3 x float]], [3 x [3 x float]], [3 x [3 x float]], [3 x [3 x float]], [3 x [3 x float]], [3 x [3 x float]], %"class.std::vector", %"class.std::vector", %"class.std::vector", %"class.std::vector", %"class.std::vector", double, float, float, %"class.gmx::PaddedVector", %"class.gmx::PaddedVector", %"class.gmx::PaddedVector", %class.ekinstate_t, %class.history_t, ptr, %"class.std::shared_ptr", i32, i32, %"class.std::vector.13", %"class.std::vector" }
%"struct.gmx::EnumerationArray.2" = type { [7 x float] }
%"class.gmx::PaddedVector" = type { %"class.std::vector.6", %"class.__gnu_cxx::__normal_iterator" }
%"class.std::vector.6" = type { %"struct.std::_Vector_base.7" }
%"struct.std::_Vector_base.7" = type { %"struct.std::_Vector_base<gmx::BasicVector<float>, gmx::Allocator<gmx::BasicVector<float>, gmx::HostAllocationPolicy>>::_Vector_impl" }
%"struct.std::_Vector_base<gmx::BasicVector<float>, gmx::Allocator<gmx::BasicVector<float>, gmx::HostAllocationPolicy>>::_Vector_impl" = type { %"class.gmx::Allocator", %"struct.std::_Vector_base<gmx::BasicVector<float>, gmx::Allocator<gmx::BasicVector<float>, gmx::HostAllocationPolicy>>::_Vector_impl_data" }
%"class.gmx::Allocator" = type { %"class.gmx::HostAllocationPolicy" }
%"class.gmx::HostAllocationPolicy" = type { i32 }
%"struct.std::_Vector_base<gmx::BasicVector<float>, gmx::Allocator<gmx::BasicVector<float>, gmx::HostAllocationPolicy>>::_Vector_impl_data" = type { ptr, ptr, ptr }
%"class.__gnu_cxx::__normal_iterator" = type { ptr }
%class.ekinstate_t = type <{ i8, [3 x i8], i32, ptr, ptr, ptr, [3 x [3 x float]], [4 x i8], %"class.std::vector", %"class.std::vector", %"class.std::vector", float, float, i8, [7 x i8] }>
%class.history_t = type { float, %"class.std::vector.8", float, %"class.std::vector.8" }
%"class.std::vector.8" = type { %"struct.std::_Vector_base.9" }
%"struct.std::_Vector_base.9" = type { %"struct.std::_Vector_base<float, std::allocator<float>>::_Vector_impl" }
%"struct.std::_Vector_base<float, std::allocator<float>>::_Vector_impl" = type { %"struct.std::_Vector_base<float, std::allocator<float>>::_Vector_impl_data" }
%"struct.std::_Vector_base<float, std::allocator<float>>::_Vector_impl_data" = type { ptr, ptr, ptr }
%"class.std::shared_ptr" = type { %"class.std::__shared_ptr" }
%"class.std::__shared_ptr" = type { ptr, %"class.std::__shared_count" }
%"class.std::__shared_count" = type { ptr }
%"class.std::vector.13" = type { %"struct.std::_Vector_base.14" }
%"struct.std::_Vector_base.14" = type { %"struct.std::_Vector_base<int, std::allocator<int>>::_Vector_impl" }
%"struct.std::_Vector_base<int, std::allocator<int>>::_Vector_impl" = type { %"struct.std::_Vector_base<int, std::allocator<int>>::_Vector_impl_data" }
%"struct.std::_Vector_base<int, std::allocator<int>>::_Vector_impl_data" = type { ptr, ptr, ptr }
%"class.std::vector" = type { %"struct.std::_Vector_base" }
%"struct.std::_Vector_base" = type { %"struct.std::_Vector_base<double, std::allocator<double>>::_Vector_impl" }
%"struct.std::_Vector_base<double, std::allocator<double>>::_Vector_impl" = type { %"struct.std::_Vector_base<double, std::allocator<double>>::_Vector_impl_data" }
%"struct.std::_Vector_base<double, std::allocator<double>>::_Vector_impl_data" = type { ptr, ptr, ptr }
%struct.gmx_mtop_t = type { ptr, %struct.gmx_ffparams_t, %"class.std::vector.28", %"class.std::vector.33", i8, %"class.std::unique_ptr.38", i32, %struct.SimulationGroups, %struct.t_symtab, i8, %"class.std::vector.13", %"class.std::vector.58", i32, i32 }
%struct.gmx_ffparams_t = type { i32, %"class.std::vector.13", %"class.std::vector.18", double, float, %struct.gmx_cmap_t }
%"class.std::vector.18" = type { %"struct.std::_Vector_base.19" }
%"struct.std::_Vector_base.19" = type { %"struct.std::_Vector_base<t_iparams, std::allocator<t_iparams>>::_Vector_impl" }
%"struct.std::_Vector_base<t_iparams, std::allocator<t_iparams>>::_Vector_impl" = type { %"struct.std::_Vector_base<t_iparams, std::allocator<t_iparams>>::_Vector_impl_data" }
%"struct.std::_Vector_base<t_iparams, std::allocator<t_iparams>>::_Vector_impl_data" = type { ptr, ptr, ptr }
%struct.gmx_cmap_t = type { i32, %"class.std::vector.23" }
%"class.std::vector.23" = type { %"struct.std::_Vector_base.24" }
%"struct.std::_Vector_base.24" = type { %"struct.std::_Vector_base<gmx_cmapdata_t, std::allocator<gmx_cmapdata_t>>::_Vector_impl" }
%"struct.std::_Vector_base<gmx_cmapdata_t, std::allocator<gmx_cmapdata_t>>::_Vector_impl" = type { %"struct.std::_Vector_base<gmx_cmapdata_t, std::allocator<gmx_cmapdata_t>>::_Vector_impl_data" }
%"struct.std::_Vector_base<gmx_cmapdata_t, std::allocator<gmx_cmapdata_t>>::_Vector_impl_data" = type { ptr, ptr, ptr }
%"class.std::vector.28" = type { %"struct.std::_Vector_base.29" }
%"struct.std::_Vector_base.29" = type { %"struct.std::_Vector_base<gmx_moltype_t, std::allocator<gmx_moltype_t>>::_Vector_impl" }
%"struct.std::_Vector_base<gmx_moltype_t, std::allocator<gmx_moltype_t>>::_Vector_impl" = type { %"struct.std::_Vector_base<gmx_moltype_t, std::allocator<gmx_moltype_t>>::_Vector_impl_data" }
%"struct.std::_Vector_base<gmx_moltype_t, std::allocator<gmx_moltype_t>>::_Vector_impl_data" = type { ptr, ptr, ptr }
%"class.std::vector.33" = type { %"struct.std::_Vector_base.34" }
%"struct.std::_Vector_base.34" = type { %"struct.std::_Vector_base<gmx_molblock_t, std::allocator<gmx_molblock_t>>::_Vector_impl" }
%"struct.std::_Vector_base<gmx_molblock_t, std::allocator<gmx_molblock_t>>::_Vector_impl" = type { %"struct.std::_Vector_base<gmx_molblock_t, std::allocator<gmx_molblock_t>>::_Vector_impl_data" }
%"struct.std::_Vector_base<gmx_molblock_t, std::allocator<gmx_molblock_t>>::_Vector_impl_data" = type { ptr, ptr, ptr }
%"class.std::unique_ptr.38" = type { %"struct.std::__uniq_ptr_data.39" }
%"struct.std::__uniq_ptr_data.39" = type { %"class.std::__uniq_ptr_impl.40" }
%"class.std::__uniq_ptr_impl.40" = type { %"class.std::tuple.41" }
%"class.std::tuple.41" = type { %"struct.std::_Tuple_impl.42" }
%"struct.std::_Tuple_impl.42" = type { %"struct.std::_Head_base.45" }
%"struct.std::_Head_base.45" = type { ptr }
%struct.SimulationGroups = type { %"struct.gmx::EnumerationArray.46", %"class.std::vector.47", %"struct.gmx::EnumerationArray.52" }
%"struct.gmx::EnumerationArray.46" = type { [10 x %"class.std::vector.13"] }
%"class.std::vector.47" = type { %"struct.std::_Vector_base.48" }
%"struct.std::_Vector_base.48" = type { %"struct.std::_Vector_base<char **, std::allocator<char **>>::_Vector_impl" }
%"struct.std::_Vector_base<char **, std::allocator<char **>>::_Vector_impl" = type { %"struct.std::_Vector_base<char **, std::allocator<char **>>::_Vector_impl_data" }
%"struct.std::_Vector_base<char **, std::allocator<char **>>::_Vector_impl_data" = type { ptr, ptr, ptr }
%"struct.gmx::EnumerationArray.52" = type { [10 x %"class.std::vector.53"] }
%"class.std::vector.53" = type { %"struct.std::_Vector_base.54" }
%"struct.std::_Vector_base.54" = type { %"struct.std::_Vector_base<unsigned char, std::allocator<unsigned char>>::_Vector_impl" }
%"struct.std::_Vector_base<unsigned char, std::allocator<unsigned char>>::_Vector_impl" = type { %"struct.std::_Vector_base<unsigned char, std::allocator<unsigned char>>::_Vector_impl_data" }
%"struct.std::_Vector_base<unsigned char, std::allocator<unsigned char>>::_Vector_impl_data" = type { ptr, ptr, ptr }
%struct.t_symtab = type { i32, ptr }
%"class.std::vector.58" = type { %"struct.std::_Vector_base.59" }
%"struct.std::_Vector_base.59" = type { %"struct.std::_Vector_base<MoleculeBlockIndices, std::allocator<MoleculeBlockIndices>>::_Vector_impl" }
%"struct.std::_Vector_base<MoleculeBlockIndices, std::allocator<MoleculeBlockIndices>>::_Vector_impl" = type { %"struct.std::_Vector_base<MoleculeBlockIndices, std::allocator<MoleculeBlockIndices>>::_Vector_impl_data" }
%"struct.std::_Vector_base<MoleculeBlockIndices, std::allocator<MoleculeBlockIndices>>::_Vector_impl_data" = type { ptr, ptr, ptr }
%struct.PartialDeserializedTprFile = type <{ %struct.TpxFileHeader, %"class.std::vector.71", i32, [4 x i8] }>

@.str.10 = private unnamed_addr constant [2 x i8] c"r\00", align 1

; Function Attrs: mustprogress nounwind uwtable
define linkonce_odr void @_ZN3gmx11ISerializerD2Ev(ptr noundef nonnull align 8 dereferenceable(8) %0) unnamed_addr #3 comdat align 2 {
  %2 = alloca ptr, align 8
  store ptr %0, ptr %2, align 8
  ret void
}

; Function Attrs: mustprogress nounwind uwtable
define internal void @_ZL9copy_rvecPKfPf(ptr noundef %0, ptr noundef %1) #3 {
  %3 = alloca ptr, align 8
  %4 = alloca ptr, align 8
  store ptr %0, ptr %3, align 8
  store ptr %1, ptr %4, align 8
  %5 = load ptr, ptr %3, align 8
  %6 = getelementptr inbounds float, ptr %5, i64 0
  %7 = load float, ptr %6, align 4
  %8 = load ptr, ptr %4, align 8
  %9 = getelementptr inbounds float, ptr %8, i64 0
  store float %7, ptr %9, align 4
  %10 = load ptr, ptr %3, align 8
  %11 = getelementptr inbounds float, ptr %10, i64 1
  %12 = load float, ptr %11, align 4
  %13 = load ptr, ptr %4, align 8
  %14 = getelementptr inbounds float, ptr %13, i64 1
  store float %12, ptr %14, align 4
  %15 = load ptr, ptr %3, align 8
  %16 = getelementptr inbounds float, ptr %15, i64 2
  %17 = load float, ptr %16, align 4
  %18 = load ptr, ptr %4, align 8
  %19 = getelementptr inbounds float, ptr %18, i64 2
  store float %17, ptr %19, align 4
  ret void
}

; Function Attrs: mustprogress nounwind uwtable
define linkonce_odr void @_ZN3gmx19FileIOXdrSerializerD2Ev(ptr noundef nonnull align 8 dereferenceable(16) %0) unnamed_addr #3 comdat align 2 {
  %2 = alloca ptr, align 8
  store ptr %0, ptr %2, align 8
  %3 = load ptr, ptr %2, align 8
  call void @_ZN3gmx11ISerializerD2Ev(ptr noundef nonnull align 8 dereferenceable(8) %3) #4
  ret void
}

; Function Attrs: mustprogress uwtable
define internal void @_ZL8copy_matPA3_KfPA3_f(ptr noundef %0, ptr noundef %1) #2 {
  %3 = alloca ptr, align 8
  %4 = alloca ptr, align 8
  store ptr %0, ptr %3, align 8
  store ptr %1, ptr %4, align 8
  %5 = load ptr, ptr %3, align 8
  %6 = getelementptr inbounds [3 x float], ptr %5, i64 0
  %7 = getelementptr inbounds [3 x float], ptr %6, i64 0, i64 0
  %8 = load ptr, ptr %4, align 8
  %9 = getelementptr inbounds [3 x float], ptr %8, i64 0
  %10 = getelementptr inbounds [3 x float], ptr %9, i64 0, i64 0
  call void @_ZL9copy_rvecPKfPf(ptr noundef %7, ptr noundef %10)
  %11 = load ptr, ptr %3, align 8
  %12 = getelementptr inbounds [3 x float], ptr %11, i64 1
  %13 = getelementptr inbounds [3 x float], ptr %12, i64 0, i64 0
  %14 = load ptr, ptr %4, align 8
  %15 = getelementptr inbounds [3 x float], ptr %14, i64 1
  %16 = getelementptr inbounds [3 x float], ptr %15, i64 0, i64 0
  call void @_ZL9copy_rvecPKfPf(ptr noundef %13, ptr noundef %16)
  %17 = load ptr, ptr %3, align 8
  %18 = getelementptr inbounds [3 x float], ptr %17, i64 2
  %19 = getelementptr inbounds [3 x float], ptr %18, i64 0, i64 0
  %20 = load ptr, ptr %4, align 8
  %21 = getelementptr inbounds [3 x float], ptr %20, i64 2
  %22 = getelementptr inbounds [3 x float], ptr %21, i64 0, i64 0
  call void @_ZL9copy_rvecPKfPf(ptr noundef %19, ptr noundef %22)
  ret void
}

; Function Attrs: mustprogress uwtable
define internal void @_ZL9close_tpxP8t_fileio(ptr noundef %0) #2 {
  %2 = alloca ptr, align 8
  store ptr %0, ptr %2, align 8
  %3 = load ptr, ptr %2, align 8
  %4 = call noundef i32 @_Z13gmx_fio_closeP8t_fileio(ptr noundef %3)
  ret void
}

; Function Attrs: mustprogress uwtable
define internal noundef ptr @_ZL8open_tpxRKNSt10filesystem7__cxx114pathEPKc(ptr noundef nonnull align 8 dereferenceable(40) %0, ptr noundef %1) #2 {
  %3 = alloca ptr, align 8
  %4 = alloca ptr, align 8
  store ptr %0, ptr %3, align 8
  store ptr %1, ptr %4, align 8
  %5 = load ptr, ptr %3, align 8
  %6 = load ptr, ptr %4, align 8
  %7 = call noundef ptr @_Z12gmx_fio_openRKNSt10filesystem7__cxx114pathEPKc(ptr noundef nonnull align 8 dereferenceable(40) %5, ptr noundef %6)
  ret ptr %7
}

; Function Attrs: mustprogress nounwind uwtable
define linkonce_odr void @_ZN13TpxFileHeaderC2Ev(ptr noundef nonnull align 8 dereferenceable(41) %0) unnamed_addr #3 comdat align 2 {
  %2 = alloca ptr, align 8
  store ptr %0, ptr %2, align 8
  %3 = load ptr, ptr %2, align 8
  %4 = getelementptr inbounds %struct.TpxFileHeader, ptr %3, i32 0, i32 0
  store i8 0, ptr %4, align 8
  %5 = getelementptr inbounds %struct.TpxFileHeader, ptr %3, i32 0, i32 1
  store i8 0, ptr %5, align 1
  %6 = getelementptr inbounds %struct.TpxFileHeader, ptr %3, i32 0, i32 2
  store i8 0, ptr %6, align 2
  %7 = getelementptr inbounds %struct.TpxFileHeader, ptr %3, i32 0, i32 3
  store i8 0, ptr %7, align 1
  %8 = getelementptr inbounds %struct.TpxFileHeader, ptr %3, i32 0, i32 4
  store i8 0, ptr %8, align 4
  %9 = getelementptr inbounds %struct.TpxFileHeader, ptr %3, i32 0, i32 5
  store i8 0, ptr %9, align 1
  %10 = getelementptr inbounds %struct.TpxFileHeader, ptr %3, i32 0, i32 7
  store i32 0, ptr %10, align 8
  %11 = getelementptr inbounds %struct.TpxFileHeader, ptr %3, i32 0, i32 8
  store i32 0, ptr %11, align 4
  %12 = getelementptr inbounds %struct.TpxFileHeader, ptr %3, i32 0, i32 9
  store float 0.000000e+00, ptr %12, align 8
  %13 = getelementptr inbounds %struct.TpxFileHeader, ptr %3, i32 0, i32 10
  store i32 0, ptr %13, align 4
  %14 = getelementptr inbounds %struct.TpxFileHeader, ptr %3, i32 0, i32 11
  store i64 0, ptr %14, align 8
  %15 = getelementptr inbounds %struct.TpxFileHeader, ptr %3, i32 0, i32 12
  store i32 0, ptr %15, align 8
  %16 = getelementptr inbounds %struct.TpxFileHeader, ptr %3, i32 0, i32 13
  store i32 0, ptr %16, align 4
  %17 = getelementptr inbounds %struct.TpxFileHeader, ptr %3, i32 0, i32 14
  store i8 0, ptr %17, align 8
  ret void
}

; Function Attrs: mustprogress uwtable
define noundef i32 @_Z8read_tpxRKNSt10filesystem7__cxx114pathEP10t_inputrecPA3_fPiS7_S7_P10gmx_mtop_t(ptr noundef nonnull align 8 dereferenceable(40) %0, ptr noundef %1, ptr noundef %2, ptr noundef %3, ptr noundef %4, ptr noundef %5, ptr noundef %6) #2 personality ptr @__gxx_personality_v0 {
  %8 = alloca ptr, align 8
  %9 = alloca ptr, align 8
  %10 = alloca ptr, align 8
  %11 = alloca ptr, align 8
  %12 = alloca ptr, align 8
  %13 = alloca ptr, align 8
  %14 = alloca ptr, align 8
  %15 = alloca ptr, align 8
  %16 = alloca %class.t_state, align 8
  %17 = alloca %struct.TpxFileHeader, align 8
  %18 = alloca ptr, align 8
  %19 = alloca i32, align 4
  %20 = alloca %"class.gmx::FileIOXdrSerializer", align 8
  %21 = alloca %struct.PartialDeserializedTprFile, align 8
  store ptr %0, ptr %8, align 8
  store ptr %1, ptr %9, align 8
  store ptr %2, ptr %10, align 8
  store ptr %3, ptr %11, align 8
  store ptr %4, ptr %12, align 8
  store ptr %5, ptr %13, align 8
  store ptr %6, ptr %14, align 8
  call void @_ZN7t_stateC1Ev(ptr noundef nonnull align 8 dereferenceable(832) %16)
  call void @_ZN13TpxFileHeaderC2Ev(ptr noundef nonnull align 8 dereferenceable(41) %17) #4
  %22 = load ptr, ptr %8, align 8
  %23 = invoke noundef ptr @_ZL8open_tpxRKNSt10filesystem7__cxx114pathEPKc(ptr noundef nonnull align 8 dereferenceable(40) %22, ptr noundef @.str.10)
          to label %24 unwind label %49

24:                                               ; preds = %7
  store ptr %23, ptr %15, align 8
  %25 = load ptr, ptr %15, align 8
  invoke void @_ZN3gmx19FileIOXdrSerializerC1EP8t_fileio(ptr noundef nonnull align 8 dereferenceable(16) %20, ptr noundef %25)
          to label %26 unwind label %49

26:                                               ; preds = %24
  %27 = load ptr, ptr %8, align 8
  %28 = load ptr, ptr %15, align 8
  %29 = load ptr, ptr %9, align 8
  %30 = icmp eq ptr %29, null
  invoke void @_ZL12do_tpxheaderPN3gmx19FileIOXdrSerializerEP13TpxFileHeaderRKNSt10filesystem7__cxx114pathEP8t_fileiob(ptr noundef %20, ptr noundef %17, ptr noundef nonnull align 8 dereferenceable(40) %27, ptr noundef %28, i1 noundef zeroext %30)
          to label %31 unwind label %53

31:                                               ; preds = %26
  %32 = load ptr, ptr %9, align 8
  %33 = load ptr, ptr %12, align 8
  %34 = load ptr, ptr %13, align 8
  %35 = load ptr, ptr %14, align 8
  invoke void @_ZL11readTpxBodyP13TpxFileHeaderPN3gmx11ISerializerEP10t_inputrecP7t_statePA3_fS9_P10gmx_mtop_t(ptr dead_on_unwind writable sret(%struct.PartialDeserializedTprFile) align 8 %21, ptr noundef %17, ptr noundef %20, ptr noundef %32, ptr noundef %16, ptr noundef %33, ptr noundef %34, ptr noundef %35)
          to label %36 unwind label %53

36:                                               ; preds = %31
  %37 = load ptr, ptr %15, align 8
  invoke void @_ZL9close_tpxP8t_fileio(ptr noundef %37)
          to label %38 unwind label %57

38:                                               ; preds = %36
  %39 = load ptr, ptr %14, align 8
  %40 = icmp ne ptr %39, null
  br i1 %40, label %41, label %61

41:                                               ; preds = %38
  %42 = load ptr, ptr %11, align 8
  %43 = icmp ne ptr %42, null
  br i1 %43, label %44, label %61

44:                                               ; preds = %41
  %45 = load ptr, ptr %14, align 8
  %46 = getelementptr inbounds %struct.gmx_mtop_t, ptr %45, i32 0, i32 6
  %47 = load i32, ptr %46, align 8
  %48 = load ptr, ptr %11, align 8
  store i32 %47, ptr %48, align 4
  br label %61

49:                                               ; preds = %24, %7
  %50 = landingpad { ptr, i32 }
          cleanup
  %51 = extractvalue { ptr, i32 } %50, 0
  store ptr %51, ptr %18, align 8
  %52 = extractvalue { ptr, i32 } %50, 1
  store i32 %52, ptr %19, align 4
  br label %73

53:                                               ; preds = %31, %26
  %54 = landingpad { ptr, i32 }
          cleanup
  %55 = extractvalue { ptr, i32 } %54, 0
  store ptr %55, ptr %18, align 8
  %56 = extractvalue { ptr, i32 } %54, 1
  store i32 %56, ptr %19, align 4
  br label %72

57:                                               ; preds = %64, %36
  %58 = landingpad { ptr, i32 }
          cleanup
  %59 = extractvalue { ptr, i32 } %58, 0
  store ptr %59, ptr %18, align 8
  %60 = extractvalue { ptr, i32 } %58, 1
  store i32 %60, ptr %19, align 4
  call void @_ZN26PartialDeserializedTprFileD2Ev(ptr noundef nonnull align 8 dereferenceable(76) %21) #4
  br label %72

61:                                               ; preds = %44, %41, %38
  %62 = load ptr, ptr %10, align 8
  %63 = icmp ne ptr %62, null
  br i1 %63, label %64, label %69

64:                                               ; preds = %61
  %65 = getelementptr inbounds %class.t_state, ptr %16, i32 0, i32 7
  %66 = getelementptr inbounds [3 x [3 x float]], ptr %65, i64 0, i64 0
  %67 = load ptr, ptr %10, align 8
  invoke void @_ZL8copy_matPA3_KfPA3_f(ptr noundef %66, ptr noundef %67)
          to label %68 unwind label %57

68:                                               ; preds = %64
  br label %69

69:                                               ; preds = %68, %61
  %70 = getelementptr inbounds %struct.PartialDeserializedTprFile, ptr %21, i32 0, i32 2
  %71 = load i32, ptr %70, align 8
  call void @_ZN26PartialDeserializedTprFileD2Ev(ptr noundef nonnull align 8 dereferenceable(76) %21) #4
  call void @_ZN3gmx19FileIOXdrSerializerD2Ev(ptr noundef nonnull align 8 dereferenceable(16) %20) #4
  call void @_ZN7t_stateD2Ev(ptr noundef nonnull align 8 dereferenceable(832) %16) #4
  ret i32 %71

72:                                               ; preds = %57, %53
  call void @_ZN3gmx19FileIOXdrSerializerD2Ev(ptr noundef nonnull align 8 dereferenceable(16) %20) #4
  br label %73

73:                                               ; preds = %72, %49
  call void @_ZN7t_stateD2Ev(ptr noundef nonnull align 8 dereferenceable(832) %16) #4
  br label %74

74:                                               ; preds = %73
  %75 = load ptr, ptr %18, align 8
  %76 = load i32, ptr %19, align 4
  %77 = insertvalue { ptr, i32 } poison, ptr %75, 0
  %78 = insertvalue { ptr, i32 } %77, i32 %76, 1
  resume { ptr, i32 } %78
}