; Function Attrs: mustprogress uwtable
define noundef i32 @_Z8read_tpxRKNSt10filesystem7__cxx114pathEP10t_inputrecPA3_fPiS7_S7_P10gmx_mtop_t(ptr noundef nonnull align 8 dereferenceable(40) %0, ptr noundef %1, ptr noundef writeonly %2, ptr noundef writeonly %3, ptr noundef %4, ptr noundef %5, ptr noundef %6) local_unnamed_addr #5 personality ptr @__gxx_personality_v0 {
  %8 = alloca %class.t_state, align 8
  %9 = alloca %struct.TpxFileHeader, align 8
  %10 = alloca %"class.gmx::FileIOXdrSerializer", align 8
  %11 = alloca %struct.PartialDeserializedTprFile, align 8
  call void @_ZN7t_stateC1Ev(ptr noundef nonnull align 8 dereferenceable(832) %8)
  %12 = getelementptr inbounds i8, ptr %9, i64 8
  call void @llvm.memset.p0.i64(ptr noundef nonnull align 8 dereferenceable(6) %9, i8 0, i64 6, i1 false)
  call void @llvm.memset.p0.i64(ptr noundef nonnull align 8 dereferenceable(33) %12, i8 0, i64 33, i1 false)
  %13 = invoke noundef ptr @_Z12gmx_fio_openRKNSt10filesystem7__cxx114pathEPKc(ptr noundef nonnull align 8 dereferenceable(40) %0, ptr noundef nonnull @.str.10)
          to label %_ZL8open_tpxRKNSt10filesystem7__cxx114pathEPKc.exit unwind label %24

_ZL8open_tpxRKNSt10filesystem7__cxx114pathEPKc.exit: ; preds = %7
  invoke void @_ZN3gmx19FileIOXdrSerializerC1EP8t_fileio(ptr noundef nonnull align 8 dereferenceable(16) %10, ptr noundef %13)
          to label %14 unwind label %24

14:                                               ; preds = %_ZL8open_tpxRKNSt10filesystem7__cxx114pathEPKc.exit
  %15 = icmp eq ptr %1, null
  invoke fastcc void @_ZL12do_tpxheaderPN3gmx19FileIOXdrSerializerEP13TpxFileHeaderRKNSt10filesystem7__cxx114pathEP8t_fileiob(ptr noundef nonnull %10, ptr noundef nonnull %9, ptr noundef nonnull align 8 dereferenceable(40) %0, ptr noundef %13, i1 noundef zeroext %15)
          to label %16 unwind label %26

16:                                               ; preds = %14
  invoke fastcc void @_ZL11readTpxBodyP13TpxFileHeaderPN3gmx11ISerializerEP10t_inputrecP7t_statePA3_fS9_P10gmx_mtop_t(ptr dead_on_unwind noalias nonnull writable align 8 %11, ptr noundef nonnull %9, ptr noundef nonnull %10, ptr noundef %1, ptr noundef nonnull %8, ptr noundef %4, ptr noundef %5, ptr noundef %6)
          to label %17 unwind label %26

17:                                               ; preds = %16
  %18 = invoke noundef i32 @_Z13gmx_fio_closeP8t_fileio(ptr noundef %13)
          to label %_ZL9close_tpxP8t_fileio.exit unwind label %28

_ZL9close_tpxP8t_fileio.exit:                     ; preds = %17
  %19 = icmp ne ptr %6, null
  %20 = icmp ne ptr %3, null
  %or.cond = and i1 %20, %19
  br i1 %or.cond, label %21, label %30

21:                                               ; preds = %_ZL9close_tpxP8t_fileio.exit
  %22 = getelementptr inbounds i8, ptr %6, i64 176
  %23 = load i32, ptr %22, align 8
  store i32 %23, ptr %3, align 4
  br label %30

24:                                               ; preds = %7, %_ZL8open_tpxRKNSt10filesystem7__cxx114pathEPKc.exit
  %25 = landingpad { ptr, i32 }
          cleanup
  br label %43

26:                                               ; preds = %16, %14
  %27 = landingpad { ptr, i32 }
          cleanup
  br label %43

28:                                               ; preds = %17
  %29 = landingpad { ptr, i32 }
          cleanup
  call void @_ZN26PartialDeserializedTprFileD2Ev(ptr noundef nonnull align 8 dereferenceable(76) %11) #22
  br label %43

30:                                               ; preds = %21, %_ZL9close_tpxP8t_fileio.exit
  %.not = icmp eq ptr %2, null
  br i1 %.not, label %37, label %31

31:                                               ; preds = %30
  %32 = getelementptr inbounds i8, ptr %8, i64 52
  %33 = load <8 x float>, ptr %32, align 4
  store <8 x float> %33, ptr %2, align 4
  %34 = getelementptr inbounds i8, ptr %8, i64 84
  %35 = load float, ptr %34, align 4
  %36 = getelementptr inbounds i8, ptr %2, i64 32
  store float %35, ptr %36, align 4
  br label %37

37:                                               ; preds = %31, %30
  %38 = getelementptr inbounds i8, ptr %11, i64 72
  %39 = load i32, ptr %38, align 8
  %40 = getelementptr inbounds i8, ptr %11, i64 48
  %41 = load ptr, ptr %40, align 8
  %.not.i.i.i.i = icmp eq ptr %41, null
  br i1 %.not.i.i.i.i, label %_ZN26PartialDeserializedTprFileD2Ev.exit, label %42

42:                                               ; preds = %37
  call void @_ZdlPv(ptr noundef nonnull %41) #27
  br label %_ZN26PartialDeserializedTprFileD2Ev.exit

_ZN26PartialDeserializedTprFileD2Ev.exit:         ; preds = %37, %42
  call void @_ZNSaIcED2Ev(ptr noundef nonnull align 1 dereferenceable(1) %40) #22
  call void @_ZN7t_stateD2Ev(ptr noundef nonnull align 8 dereferenceable(832) %8) #22
  ret i32 %39

43:                                               ; preds = %26, %28, %24
  %.pn.pn = phi { ptr, i32 } [ %25, %24 ], [ %29, %28 ], [ %27, %26 ]
  call void @_ZN7t_stateD2Ev(ptr noundef nonnull align 8 dereferenceable(832) %8) #22
  resume { ptr, i32 } %.pn.pn
}